target datalayout = "e-m:e-p270:32:32-p271:32:32-p272:64:64-i64:64-i128:128-f80:128-n8:16:32:64-S128"
target triple = "x86_64-pc-linux-gnu"

@.str = private unnamed_addr constant [18 x i8] c"/proc/self/ns/pid\00", align 1
@.str.1 = private unnamed_addr constant [6 x i8] c"pid:[\00", align 1

; Function Attrs: inlinehint nounwind willreturn memory(read) uwtable
define available_externally i64 @atol(ptr noundef nonnull %0) #6 {
  %2 = alloca ptr, align 8
  store ptr %0, ptr %2, align 8, !tbaa !20
  %3 = load ptr, ptr %2, align 8, !tbaa !20
  %4 = call i64 @strtol(ptr noundef %3, ptr noundef null, i32 noundef 10) #12
  ret i64 %4
}

; Function Attrs: nounwind uwtable
define i64 @prof_get_pid_namespace() #0 {
  %1 = alloca i64, align 8
  %2 = alloca [4096 x i8], align 16
  %3 = alloca ptr, align 8
  %4 = alloca i64, align 8
  %5 = alloca ptr, align 8
  call void @llvm.lifetime.start.p0(i64 8, ptr %1) #12
  store i64 0, ptr %1, align 8, !tbaa !22
  call void @llvm.lifetime.start.p0(i64 4096, ptr %2) #12
  call void @llvm.lifetime.start.p0(i64 8, ptr %3) #12
  store ptr @.str, ptr %3, align 8, !tbaa !20
  call void @llvm.lifetime.start.p0(i64 8, ptr %4) #12
  %6 = load ptr, ptr %3, align 8, !tbaa !20
  %7 = getelementptr inbounds [4096 x i8], ptr %2, i64 0, i64 0
  %8 = call i64 @readlink(ptr noundef %6, ptr noundef %7, i64 noundef 4096) #12
  store i64 %8, ptr %4, align 8, !tbaa !22
  %9 = load i64, ptr %4, align 8, !tbaa !22
  %10 = icmp sgt i64 %9, 0
  br i1 %10, label %11, label %19

11:                                               ; preds = %0
  %12 = load i64, ptr %4, align 8, !tbaa !22
  %13 = sub nsw i64 %12, 1
  %14 = getelementptr inbounds [4096 x i8], ptr %2, i64 0, i64 %13
  store i8 0, ptr %14, align 1, !tbaa !26
  call void @llvm.lifetime.start.p0(i64 8, ptr %5) #12
  %15 = getelementptr inbounds [4096 x i8], ptr %2, i64 0, i64 0
  %16 = call ptr @strtok(ptr noundef %15, ptr noundef @.str.1) #12
  store ptr %16, ptr %5, align 8, !tbaa !20
  %17 = load ptr, ptr %5, align 8, !tbaa !20
  %18 = call i64 @atol(ptr noundef %17) #13
  store i64 %18, ptr %1, align 8, !tbaa !22
  call void @llvm.lifetime.end.p0(i64 8, ptr %5) #12
  br label %19

19:                                               ; preds = %11, %0
  %20 = load i64, ptr %1, align 8, !tbaa !22
  call void @llvm.lifetime.end.p0(i64 8, ptr %4) #12
  call void @llvm.lifetime.end.p0(i64 8, ptr %3) #12
  call void @llvm.lifetime.end.p0(i64 4096, ptr %2) #12
  call void @llvm.lifetime.end.p0(i64 8, ptr %1) #12
  ret i64 %20
}