; Function Attrs: nofree nounwind uwtable
define i64 @prof_get_pid_namespace() local_unnamed_addr #6 {
  %1 = alloca [4096 x i8], align 16
  call void @llvm.lifetime.start.p0(i64 4096, ptr nonnull %1) #12
  %2 = call i64 @readlink(ptr noundef nonnull @.str, ptr noundef nonnull %1, i64 noundef 4096) #12
  %3 = icmp sgt i64 %2, 0
  br i1 %3, label %4, label %9

4:                                                ; preds = %0
  %5 = add nsw i64 %2, -1
  %6 = getelementptr inbounds nuw [4096 x i8], ptr %1, i64 0, i64 %5
  store i8 0, ptr %6, align 1, !tbaa !3
  %7 = call ptr @strtok(ptr noundef nonnull %1, ptr noundef nonnull @.str.1) #12
  %8 = call i64 @strtol(ptr noundef nonnull captures(none) %7, ptr noundef null, i32 noundef 10) #12
  br label %9

9:                                                ; preds = %4, %0
  %.0 = phi i64 [ %8, %4 ], [ 0, %0 ]
  call void @llvm.lifetime.end.p0(i64 4096, ptr nonnull %1) #12
  ret i64 %.0
}